target datalayout = "e-m:e-p270:32:32-p271:32:32-p272:64:64-i64:64-i128:128-f80:128-n8:16:32:64-S128"
target triple = "x86_64-pc-linux-gnu"

%struct.H5D_t = type { %struct.H5O_loc_t, %struct.H5G_name_t, ptr }
%struct.H5O_loc_t = type { ptr, i64, i8 }
%struct.H5G_name_t = type { ptr, ptr, i32 }
%struct.H5D_shared_t = type { i64, i8, i64, ptr, ptr, i64, i64, %struct.H5D_dcpl_cache_t, %struct.H5O_layout_t, i8, i32, [32 x i64], [32 x i64], [32 x i64], %struct.anon.6, %struct.H5D_append_flush_t, ptr, ptr }
%struct.H5D_dcpl_cache_t = type { %struct.H5O_fill_t, %struct.H5O_pline_t, %struct.H5O_efl_t }
%struct.H5O_fill_t = type { %struct.H5O_shared_t, i32, ptr, i64, ptr, i32, i32, i8 }
%struct.H5O_shared_t = type { i32, ptr, i32, %union.anon }
%union.anon = type { %struct.H5O_mesg_loc_t }
%struct.H5O_mesg_loc_t = type { i32, i64 }
%struct.H5O_pline_t = type { %struct.H5O_shared_t, i32, i64, i64, ptr }
%struct.H5O_efl_t = type { i64, i64, i64, ptr }
%struct.H5O_layout_t = type { i32, i32, ptr, %union.anon.0, %struct.H5O_storage_t }
%union.anon.0 = type { %struct.H5O_layout_chunk_t }
%struct.H5O_layout_chunk_t = type { i32, i8, i32, [33 x i32], i32, i32, i64, i64, [33 x i64], [33 x i64], [33 x i64], [33 x i64], %union.anon.1 }
%union.anon.1 = type { %struct.H5O_layout_chunk_earray_t }
%struct.H5O_layout_chunk_earray_t = type { %struct.anon.2, i32, [33 x i32], [33 x i64], [33 x i64] }
%struct.anon.2 = type { i8, i8, i8, i8, i8 }
%struct.H5O_storage_t = type { i32, %union.anon.4 }
%union.anon.4 = type { %struct.H5O_storage_virtual_t }
%struct.H5O_storage_virtual_t = type { %struct.H5HG_t, i64, ptr, i64, [32 x i64], i32, i64, i64, i64, i8 }
%struct.H5HG_t = type { i64, i64 }
%struct.anon.6 = type { %struct.H5D_rdcdc_t, %struct.H5D_rdcc_t }
%struct.H5D_rdcdc_t = type { ptr, i64, i64, i64, i8 }
%struct.H5D_rdcc_t = type { %struct.anon.7, i64, i64, double, ptr, ptr, ptr, i64, i32, %struct.H5D_chunk_cached_t, ptr, ptr, ptr, ptr, [32 x i64], [32 x i64], [32 x i32] }
%struct.anon.7 = type { i32, i32, i32, i32 }
%struct.H5D_chunk_cached_t = type { i8, [33 x i64], i64, i32, i64, i32 }
%struct.H5D_append_flush_t = type { i32, [32 x i64], ptr, ptr }
%struct.H5O_storage_chunk_t = type { i32, i64, ptr, %union.anon.5 }
%union.anon.5 = type { %struct.H5O_storage_chunk_btree_t }
%struct.H5O_storage_chunk_btree_t = type { i64, ptr }
%struct.H5D_chunk_ops_t = type { i8, ptr, ptr, ptr, ptr, ptr, ptr, ptr, ptr, ptr, ptr, ptr, ptr, ptr, ptr, ptr, ptr, ptr, ptr, ptr }

@H5D_init_g = external global i8, align 1
@H5_libterm_g = external global i8, align 1
@.str.1 = private unnamed_addr constant [102 x i8] c"generated/home/dtcxzyw/WorkSpace/Projects/compilers/llvm-opt-benchmark/bench/hdf5/hdf5/src/H5Dchunk.c\00", align 1
@H5E_DATASET_g = external global i64, align 8
@__func__.H5D__chunk_set_info = private unnamed_addr constant [20 x i8] c"H5D__chunk_set_info\00", align 1
@H5E_CANTSET_g = external global i64, align 8
@.str.12 = private unnamed_addr constant [30 x i8] c"can't set layout's chunk info\00", align 1
@.str.13 = private unnamed_addr constant [41 x i8] c"unable to resize chunk index information\00", align 1

; Function Attrs: nounwind uwtable
define i32 @H5D__chunk_set_info(ptr noundef %0) #0 {
  %2 = alloca ptr, align 8
  %3 = alloca i32, align 4
  %4 = alloca i8, align 1
  store ptr %0, ptr %2, align 8, !tbaa !8
  call void @llvm.lifetime.start.p0(i64 4, ptr %3) #10
  store i32 0, ptr %3, align 4, !tbaa !10
  call void @llvm.lifetime.start.p0(i64 1, ptr %4) #10
  store i8 0, ptr %4, align 1, !tbaa !12
  %5 = load i8, ptr @H5D_init_g, align 1, !tbaa !12, !range !14, !noundef !15
  %6 = trunc i8 %5 to i1
  br i1 %6, label %11, label %7

7:                                                ; preds = %1
  %8 = load i8, ptr @H5_libterm_g, align 1, !tbaa !12, !range !14, !noundef !15
  %9 = trunc i8 %8 to i1
  %10 = xor i1 %9, true
  br label %11

11:                                               ; preds = %7, %1
  %12 = phi i1 [ true, %1 ], [ %10, %7 ]
  %13 = xor i1 %12, true
  %14 = xor i1 %13, true
  %15 = zext i1 %14 to i32
  %16 = sext i32 %15 to i64
  %17 = call i64 @llvm.expect.i64(i64 %16, i64 1)
  %18 = icmp ne i64 %17, 0
  br i1 %18, label %19, label %112

19:                                               ; preds = %11
  %20 = load ptr, ptr %2, align 8, !tbaa !8
  %21 = getelementptr inbounds nuw %struct.H5D_t, ptr %20, i32 0, i32 2
  %22 = load ptr, ptr %21, align 8, !tbaa !16
  %23 = getelementptr inbounds nuw %struct.H5D_shared_t, ptr %22, i32 0, i32 8
  %24 = getelementptr inbounds nuw %struct.H5O_layout_t, ptr %23, i32 0, i32 3
  %25 = load ptr, ptr %2, align 8, !tbaa !8
  %26 = getelementptr inbounds nuw %struct.H5D_t, ptr %25, i32 0, i32 2
  %27 = load ptr, ptr %26, align 8, !tbaa !16
  %28 = getelementptr inbounds nuw %struct.H5D_shared_t, ptr %27, i32 0, i32 10
  %29 = load i32, ptr %28, align 4, !tbaa !25
  %30 = load ptr, ptr %2, align 8, !tbaa !8
  %31 = getelementptr inbounds nuw %struct.H5D_t, ptr %30, i32 0, i32 2
  %32 = load ptr, ptr %31, align 8, !tbaa !16
  %33 = getelementptr inbounds nuw %struct.H5D_shared_t, ptr %32, i32 0, i32 11
  %34 = getelementptr inbounds [32 x i64], ptr %33, i64 0, i64 0
  %35 = load ptr, ptr %2, align 8, !tbaa !8
  %36 = getelementptr inbounds nuw %struct.H5D_t, ptr %35, i32 0, i32 2
  %37 = load ptr, ptr %36, align 8, !tbaa !16
  %38 = getelementptr inbounds nuw %struct.H5D_shared_t, ptr %37, i32 0, i32 13
  %39 = getelementptr inbounds [32 x i64], ptr %38, i64 0, i64 0
  %40 = call i32 @H5D__chunk_set_info_real(ptr noundef %24, i32 noundef %29, ptr noundef %34, ptr noundef %39)
  %41 = icmp slt i32 %40, 0
  br i1 %41, label %42, label %61

42:                                               ; preds = %19
  br label %43

43:                                               ; preds = %42
  br label %44

44:                                               ; preds = %43
  br label %45

45:                                               ; preds = %44
  %46 = load i64, ptr @H5E_DATASET_g, align 8, !tbaa !24
  %47 = load i64, ptr @H5E_CANTSET_g, align 8, !tbaa !24
  %48 = call i32 (ptr, ptr, i32, i64, i64, ptr, ...) @H5E_printf_stack(ptr noundef @.str.1, ptr noundef @__func__.H5D__chunk_set_info, i32 noundef 734, i64 noundef %46, i64 noundef %47, ptr noundef @.str.12)
  br label %49

49:                                               ; preds = %45
  br label %50

50:                                               ; preds = %49
  store i8 1, ptr %4, align 1, !tbaa !12
  %51 = load i8, ptr %4, align 1, !tbaa !12, !range !14, !noundef !15
  %52 = trunc i8 %51 to i1
  %53 = zext i1 %52 to i8
  store i8 %53, ptr %4, align 1, !tbaa !12
  br label %54

54:                                               ; preds = %50
  br label %55

55:                                               ; preds = %54
  br label %56

56:                                               ; preds = %55
  store i32 -1, ptr %3, align 4, !tbaa !10
  br label %111

57:                                               ; No predecessors!
  br label %58

58:                                               ; preds = %57
  br label %59

59:                                               ; preds = %58
  br label %60

60:                                               ; preds = %59
  br label %61

61:                                               ; preds = %60, %19
  %62 = load ptr, ptr %2, align 8, !tbaa !8
  %63 = getelementptr inbounds nuw %struct.H5D_t, ptr %62, i32 0, i32 2
  %64 = load ptr, ptr %63, align 8, !tbaa !16
  %65 = getelementptr inbounds nuw %struct.H5D_shared_t, ptr %64, i32 0, i32 8
  %66 = getelementptr inbounds nuw %struct.H5O_layout_t, ptr %65, i32 0, i32 4
  %67 = getelementptr inbounds nuw %struct.H5O_storage_t, ptr %66, i32 0, i32 1
  %68 = getelementptr inbounds nuw %struct.H5O_storage_chunk_t, ptr %67, i32 0, i32 2
  %69 = load ptr, ptr %68, align 8, !tbaa !23
  %70 = getelementptr inbounds nuw %struct.H5D_chunk_ops_t, ptr %69, i32 0, i32 10
  %71 = load ptr, ptr %70, align 8, !tbaa !239
  %72 = icmp ne ptr %71, null
  br i1 %72, label %73, label %110

73:                                               ; preds = %61
  %74 = load ptr, ptr %2, align 8, !tbaa !8
  %75 = getelementptr inbounds nuw %struct.H5D_t, ptr %74, i32 0, i32 2
  %76 = load ptr, ptr %75, align 8, !tbaa !16
  %77 = getelementptr inbounds nuw %struct.H5D_shared_t, ptr %76, i32 0, i32 8
  %78 = getelementptr inbounds nuw %struct.H5O_layout_t, ptr %77, i32 0, i32 4
  %79 = getelementptr inbounds nuw %struct.H5O_storage_t, ptr %78, i32 0, i32 1
  %80 = getelementptr inbounds nuw %struct.H5O_storage_chunk_t, ptr %79, i32 0, i32 2
  %81 = load ptr, ptr %80, align 8, !tbaa !23
  %82 = getelementptr inbounds nuw %struct.H5D_chunk_ops_t, ptr %81, i32 0, i32 10
  %83 = load ptr, ptr %82, align 8, !tbaa !239
  %84 = load ptr, ptr %2, align 8, !tbaa !8
  %85 = getelementptr inbounds nuw %struct.H5D_t, ptr %84, i32 0, i32 2
  %86 = load ptr, ptr %85, align 8, !tbaa !16
  %87 = getelementptr inbounds nuw %struct.H5D_shared_t, ptr %86, i32 0, i32 8
  %88 = getelementptr inbounds nuw %struct.H5O_layout_t, ptr %87, i32 0, i32 3
  %89 = call i32 %83(ptr noundef %88)
  %90 = icmp slt i32 %89, 0
  br i1 %90, label %91, label %110

91:                                               ; preds = %73
  br label %92

92:                                               ; preds = %91
  br label %93

93:                                               ; preds = %92
  br label %94

94:                                               ; preds = %93
  %95 = load i64, ptr @H5E_DATASET_g, align 8, !tbaa !24
  %96 = load i64, ptr @H5E_CANTSET_g, align 8, !tbaa !24
  %97 = call i32 (ptr, ptr, i32, i64, i64, ptr, ...) @H5E_printf_stack(ptr noundef @.str.1, ptr noundef @__func__.H5D__chunk_set_info, i32 noundef 739, i64 noundef %95, i64 noundef %96, ptr noundef @.str.13)
  br label %98

98:                                               ; preds = %94
  br label %99

99:                                               ; preds = %98
  store i8 1, ptr %4, align 1, !tbaa !12
  %100 = load i8, ptr %4, align 1, !tbaa !12, !range !14, !noundef !15
  %101 = trunc i8 %100 to i1
  %102 = zext i1 %101 to i8
  store i8 %102, ptr %4, align 1, !tbaa !12
  br label %103

103:                                              ; preds = %99
  br label %104

104:                                              ; preds = %103
  br label %105

105:                                              ; preds = %104
  store i32 -1, ptr %3, align 4, !tbaa !10
  br label %111

106:                                              ; No predecessors!
  br label %107

107:                                              ; preds = %106
  br label %108

108:                                              ; preds = %107
  br label %109

109:                                              ; preds = %108
  br label %110

110:                                              ; preds = %109, %73, %61
  br label %111

111:                                              ; preds = %110, %105, %56
  br label %112

112:                                              ; preds = %111, %11
  %113 = load i32, ptr %3, align 4, !tbaa !10
  call void @llvm.lifetime.end.p0(i64 1, ptr %4) #10
  call void @llvm.lifetime.end.p0(i64 4, ptr %3) #10
  ret i32 %113
}