; Function Attrs: nounwind uwtable
define range(i32 -1, 1) i32 @H5D__chunk_set_info(ptr noundef readonly captures(none) %0) local_unnamed_addr #0 {
  %2 = load i8, ptr @H5D_init_g, align 1, !tbaa !3, !range !7, !noundef !8
  %3 = trunc nuw i8 %2 to i1
  %4 = load i8, ptr @H5_libterm_g, align 1, !range !7
  %5 = trunc nuw i8 %4 to i1
  %6 = xor i1 %5, true
  %7 = select i1 %3, i1 true, i1 %6
  br i1 %7, label %8, label %36, !prof !9

8:                                                ; preds = %1
  %9 = getelementptr inbounds nuw i8, ptr %0, i64 48
  %10 = load ptr, ptr %9, align 8, !tbaa !10
  %11 = getelementptr inbounds nuw i8, ptr %10, i64 264
  %12 = getelementptr inbounds nuw i8, ptr %10, i64 2508
  %13 = load i32, ptr %12, align 4, !tbaa !22
  %14 = getelementptr inbounds nuw i8, ptr %10, i64 2512
  %15 = getelementptr inbounds nuw i8, ptr %10, i64 3024
  %16 = tail call fastcc i32 @H5D__chunk_set_info_real(ptr noundef nonnull %11, i32 noundef %13, ptr noundef nonnull %14, ptr noundef nonnull %15)
  %17 = icmp slt i32 %16, 0
  br i1 %17, label %18, label %22

18:                                               ; preds = %8
  %19 = load i64, ptr @H5E_DATASET_g, align 8, !tbaa !21
  %20 = load i64, ptr @H5E_CANTSET_g, align 8, !tbaa !21
  %21 = tail call i32 (ptr, ptr, i32, i64, i64, ptr, ...) @H5E_printf_stack(ptr noundef nonnull @.str.1, ptr noundef nonnull @__func__.H5D__chunk_set_info, i32 noundef 734, i64 noundef %19, i64 noundef %20, ptr noundef nonnull @.str.12) #15
  br label %36

22:                                               ; preds = %8
  %23 = load ptr, ptr %9, align 8, !tbaa !10
  %24 = getelementptr inbounds nuw i8, ptr %23, i64 2184
  %25 = load ptr, ptr %24, align 8, !tbaa !20
  %26 = getelementptr inbounds nuw i8, ptr %25, i64 80
  %27 = load ptr, ptr %26, align 8, !tbaa !75
  %.not = icmp eq ptr %27, null
  br i1 %.not, label %36, label %28

28:                                               ; preds = %22
  %29 = getelementptr inbounds nuw i8, ptr %23, i64 264
  %30 = tail call i32 %27(ptr noundef nonnull %29) #15
  %31 = icmp slt i32 %30, 0
  br i1 %31, label %32, label %36

32:                                               ; preds = %28
  %33 = load i64, ptr @H5E_DATASET_g, align 8, !tbaa !21
  %34 = load i64, ptr @H5E_CANTSET_g, align 8, !tbaa !21
  %35 = tail call i32 (ptr, ptr, i32, i64, i64, ptr, ...) @H5E_printf_stack(ptr noundef nonnull @.str.1, ptr noundef nonnull @__func__.H5D__chunk_set_info, i32 noundef 739, i64 noundef %33, i64 noundef %34, ptr noundef nonnull @.str.13) #15
  br label %36

36:                                               ; preds = %18, %32, %28, %22, %1
  %.0 = phi i32 [ -1, %18 ], [ -1, %32 ], [ 0, %28 ], [ 0, %22 ], [ 0, %1 ]
  ret i32 %.0
}